; Function Attrs: mustprogress nounwind uwtable
define hidden void @_ZN4cvc58internal6theory5arith2nl10IAndSolverD2Ev(ptr noundef nonnull align 8 dereferenceable(248) initializes((0, 8)) %0) unnamed_addr #5 align 2 personality ptr @__gxx_personality_v0 {
  store ptr getelementptr inbounds nuw inrange(-16, 16) (i8, ptr @_ZTVN4cvc58internal6theory5arith2nl10IAndSolverE, i64 16), ptr %0, align 8, !tbaa !3
  %2 = getelementptr inbounds nuw i8, ptr %0, i64 200
  %3 = getelementptr inbounds nuw i8, ptr %0, i64 216
  %4 = load ptr, ptr %3, align 8, !tbaa !40
  invoke void @_ZNSt8_Rb_treeIjSt4pairIKjSt6vectorIN4cvc58internal12NodeTemplateILb1EEESaIS6_EEESt10_Select1stIS9_ESt4lessIjESaIS9_EE8_M_eraseEPSt13_Rb_tree_nodeIS9_E(ptr noundef nonnull align 8 dereferenceable(48) %2, ptr noundef %4)
          to label %_ZNSt3mapIjSt6vectorIN4cvc58internal12NodeTemplateILb1EEESaIS4_EESt4lessIjESaISt4pairIKjS6_EEED2Ev.exit unwind label %5

5:                                                ; preds = %1
  %6 = landingpad { ptr, i32 }
          catch ptr null
  %7 = extractvalue { ptr, i32 } %6, 0
  tail call void @__clang_call_terminate(ptr %7) #24
  unreachable

_ZNSt3mapIjSt6vectorIN4cvc58internal12NodeTemplateILb1EEESaIS4_EESt4lessIjESaISt4pairIKjS6_EEED2Ev.exit: ; preds = %1
  %8 = getelementptr inbounds nuw i8, ptr %0, i64 144
  store ptr getelementptr inbounds nuw inrange(-16, 32) (i8, ptr @_ZTVN4cvc57context15CDInsertHashMapINS_8internal12NodeTemplateILb1EEEbSt4hashIS4_EEE, i64 16), ptr %8, align 8, !tbaa !3
  invoke void @_ZN4cvc57context10ContextObj7destroyEv(ptr noundef nonnull align 8 dereferenceable(56) %8)
          to label %9 unwind label %15

9:                                                ; preds = %_ZNSt3mapIjSt6vectorIN4cvc58internal12NodeTemplateILb1EEESaIS4_EESt4lessIjESaISt4pairIKjS6_EEED2Ev.exit
  %10 = getelementptr inbounds nuw i8, ptr %0, i64 184
  %11 = load ptr, ptr %10, align 8, !tbaa !27
  %12 = icmp eq ptr %11, null
  br i1 %12, label %_ZN4cvc57context15CDInsertHashMapINS_8internal12NodeTemplateILb1EEEbSt4hashIS4_EED2Ev.exit, label %13

13:                                               ; preds = %9
  %14 = getelementptr inbounds nuw i8, ptr %11, i64 80
  tail call void @_ZNSt10_HashtableIKN4cvc58internal12NodeTemplateILb1EEESt4pairIS4_KbESaIS7_ENSt8__detail10_Select1stESt8equal_toIS4_ESt4hashIS3_ENS9_18_Mod_range_hashingENS9_20_Default_ranged_hashENS9_20_Prime_rehash_policyENS9_17_Hashtable_traitsILb1ELb0ELb1EEEED2Ev(ptr noundef nonnull align 8 dereferenceable(56) %14) #21
  tail call void @_ZNSt5dequeIN4cvc58internal12NodeTemplateILb1EEESaIS3_EED2Ev(ptr noundef nonnull align 8 dereferenceable(136) %11) #21
  tail call void @_ZdlPvm(ptr noundef nonnull %11, i64 noundef 136) #23
  br label %_ZN4cvc57context15CDInsertHashMapINS_8internal12NodeTemplateILb1EEEbSt4hashIS4_EED2Ev.exit

15:                                               ; preds = %_ZNSt3mapIjSt6vectorIN4cvc58internal12NodeTemplateILb1EEESaIS4_EESt4lessIjESaISt4pairIKjS6_EEED2Ev.exit
  %16 = landingpad { ptr, i32 }
          catch ptr null
  %17 = extractvalue { ptr, i32 } %16, 0
  tail call void @__clang_call_terminate(ptr %17) #24
  unreachable

_ZN4cvc57context15CDInsertHashMapINS_8internal12NodeTemplateILb1EEEbSt4hashIS4_EED2Ev.exit: ; preds = %9, %13
  %18 = getelementptr inbounds nuw i8, ptr %0, i64 72
  tail call void @_ZN4cvc58internal6theory5arith2nl9IAndUtilsD2Ev(ptr noundef nonnull align 8 dereferenceable(72) %18) #21
  %19 = getelementptr inbounds nuw i8, ptr %0, i64 64
  %20 = load ptr, ptr %19, align 8, !tbaa !15
  %21 = load i64, ptr %20, align 8
  %22 = and i64 %21, 1152920405095219200
  %.not.i.i = icmp eq i64 %22, 1152920405095219200
  br i1 %.not.i.i, label %_ZN4cvc58internal12NodeTemplateILb1EED2Ev.exit, label %23, !prof !46

23:                                               ; preds = %_ZN4cvc57context15CDInsertHashMapINS_8internal12NodeTemplateILb1EEEbSt4hashIS4_EED2Ev.exit
  %24 = add i64 %21, 1152920405095219200
  %25 = and i64 %24, 1152920405095219200
  %26 = and i64 %21, -1152920405095219201
  %27 = or disjoint i64 %25, %26
  store i64 %27, ptr %20, align 8
  %28 = icmp eq i64 %25, 0
  br i1 %28, label %29, label %_ZN4cvc58internal12NodeTemplateILb1EED2Ev.exit, !prof !46

29:                                               ; preds = %23
  invoke void @_ZN4cvc58internal4expr9NodeValue15markForDeletionEv(ptr noundef nonnull align 8 dereferenceable(24) %20)
          to label %_ZN4cvc58internal12NodeTemplateILb1EED2Ev.exit unwind label %30

30:                                               ; preds = %29
  %31 = landingpad { ptr, i32 }
          catch ptr null
  %32 = extractvalue { ptr, i32 } %31, 0
  tail call void @__clang_call_terminate(ptr %32) #24
  unreachable

_ZN4cvc58internal12NodeTemplateILb1EED2Ev.exit:   ; preds = %_ZN4cvc57context15CDInsertHashMapINS_8internal12NodeTemplateILb1EEEbSt4hashIS4_EED2Ev.exit, %23, %29
  %33 = getelementptr inbounds nuw i8, ptr %0, i64 56
  %34 = load ptr, ptr %33, align 8, !tbaa !15
  %35 = load i64, ptr %34, align 8
  %36 = and i64 %35, 1152920405095219200
  %.not.i.i1 = icmp eq i64 %36, 1152920405095219200
  br i1 %.not.i.i1, label %_ZN4cvc58internal12NodeTemplateILb1EED2Ev.exit2, label %37, !prof !46

37:                                               ; preds = %_ZN4cvc58internal12NodeTemplateILb1EED2Ev.exit
  %38 = add i64 %35, 1152920405095219200
  %39 = and i64 %38, 1152920405095219200
  %40 = and i64 %35, -1152920405095219201
  %41 = or disjoint i64 %39, %40
  store i64 %41, ptr %34, align 8
  %42 = icmp eq i64 %39, 0
  br i1 %42, label %43, label %_ZN4cvc58internal12NodeTemplateILb1EED2Ev.exit2, !prof !46

43:                                               ; preds = %37
  invoke void @_ZN4cvc58internal4expr9NodeValue15markForDeletionEv(ptr noundef nonnull align 8 dereferenceable(24) %34)
          to label %_ZN4cvc58internal12NodeTemplateILb1EED2Ev.exit2 unwind label %44

44:                                               ; preds = %43
  %45 = landingpad { ptr, i32 }
          catch ptr null
  %46 = extractvalue { ptr, i32 } %45, 0
  tail call void @__clang_call_terminate(ptr %46) #24
  unreachable

_ZN4cvc58internal12NodeTemplateILb1EED2Ev.exit2:  ; preds = %_ZN4cvc58internal12NodeTemplateILb1EED2Ev.exit, %37, %43
  %47 = getelementptr inbounds nuw i8, ptr %0, i64 48
  %48 = load ptr, ptr %47, align 8, !tbaa !15
  %49 = load i64, ptr %48, align 8
  %50 = and i64 %49, 1152920405095219200
  %.not.i.i3 = icmp eq i64 %50, 1152920405095219200
  br i1 %.not.i.i3, label %_ZN4cvc58internal12NodeTemplateILb1EED2Ev.exit4, label %51, !prof !46

51:                                               ; preds = %_ZN4cvc58internal12NodeTemplateILb1EED2Ev.exit2
  %52 = add i64 %49, 1152920405095219200
  %53 = and i64 %52, 1152920405095219200
  %54 = and i64 %49, -1152920405095219201
  %55 = or disjoint i64 %53, %54
  store i64 %55, ptr %48, align 8
  %56 = icmp eq i64 %53, 0
  br i1 %56, label %57, label %_ZN4cvc58internal12NodeTemplateILb1EED2Ev.exit4, !prof !46

57:                                               ; preds = %51
  invoke void @_ZN4cvc58internal4expr9NodeValue15markForDeletionEv(ptr noundef nonnull align 8 dereferenceable(24) %48)
          to label %_ZN4cvc58internal12NodeTemplateILb1EED2Ev.exit4 unwind label %58

58:                                               ; preds = %57
  %59 = landingpad { ptr, i32 }
          catch ptr null
  %60 = extractvalue { ptr, i32 } %59, 0
  tail call void @__clang_call_terminate(ptr %60) #24
  unreachable

_ZN4cvc58internal12NodeTemplateILb1EED2Ev.exit4:  ; preds = %_ZN4cvc58internal12NodeTemplateILb1EED2Ev.exit2, %51, %57
  %61 = getelementptr inbounds nuw i8, ptr %0, i64 40
  %62 = load ptr, ptr %61, align 8, !tbaa !15
  %63 = load i64, ptr %62, align 8
  %64 = and i64 %63, 1152920405095219200
  %.not.i.i5 = icmp eq i64 %64, 1152920405095219200
  br i1 %.not.i.i5, label %_ZN4cvc58internal12NodeTemplateILb1EED2Ev.exit6, label %65, !prof !46

65:                                               ; preds = %_ZN4cvc58internal12NodeTemplateILb1EED2Ev.exit4
  %66 = add i64 %63, 1152920405095219200
  %67 = and i64 %66, 1152920405095219200
  %68 = and i64 %63, -1152920405095219201
  %69 = or disjoint i64 %67, %68
  store i64 %69, ptr %62, align 8
  %70 = icmp eq i64 %67, 0
  br i1 %70, label %71, label %_ZN4cvc58internal12NodeTemplateILb1EED2Ev.exit6, !prof !46

71:                                               ; preds = %65
  invoke void @_ZN4cvc58internal4expr9NodeValue15markForDeletionEv(ptr noundef nonnull align 8 dereferenceable(24) %62)
          to label %_ZN4cvc58internal12NodeTemplateILb1EED2Ev.exit6 unwind label %72

72:                                               ; preds = %71
  %73 = landingpad { ptr, i32 }
          catch ptr null
  %74 = extractvalue { ptr, i32 } %73, 0
  tail call void @__clang_call_terminate(ptr %74) #24
  unreachable

_ZN4cvc58internal12NodeTemplateILb1EED2Ev.exit6:  ; preds = %_ZN4cvc58internal12NodeTemplateILb1EED2Ev.exit4, %65, %71
  %75 = getelementptr inbounds nuw i8, ptr %0, i64 32
  %76 = load ptr, ptr %75, align 8, !tbaa !15
  %77 = load i64, ptr %76, align 8
  %78 = and i64 %77, 1152920405095219200
  %.not.i.i7 = icmp eq i64 %78, 1152920405095219200
  br i1 %.not.i.i7, label %_ZN4cvc58internal12NodeTemplateILb1EED2Ev.exit8, label %79, !prof !46

79:                                               ; preds = %_ZN4cvc58internal12NodeTemplateILb1EED2Ev.exit6
  %80 = add i64 %77, 1152920405095219200
  %81 = and i64 %80, 1152920405095219200
  %82 = and i64 %77, -1152920405095219201
  %83 = or disjoint i64 %81, %82
  store i64 %83, ptr %76, align 8
  %84 = icmp eq i64 %81, 0
  br i1 %84, label %85, label %_ZN4cvc58internal12NodeTemplateILb1EED2Ev.exit8, !prof !46

85:                                               ; preds = %79
  invoke void @_ZN4cvc58internal4expr9NodeValue15markForDeletionEv(ptr noundef nonnull align 8 dereferenceable(24) %76)
          to label %_ZN4cvc58internal12NodeTemplateILb1EED2Ev.exit8 unwind label %86

86:                                               ; preds = %85
  %87 = landingpad { ptr, i32 }
          catch ptr null
  %88 = extractvalue { ptr, i32 } %87, 0
  tail call void @__clang_call_terminate(ptr %88) #24
  unreachable

_ZN4cvc58internal12NodeTemplateILb1EED2Ev.exit8:  ; preds = %_ZN4cvc58internal12NodeTemplateILb1EED2Ev.exit6, %79, %85
  ret void
}